; Function Attrs: mustprogress null_pointer_is_valid sspstrong uwtable
define void @_ZN23ResolvedAddressesDialog34on_cmbDataType_currentIndexChangedEi(ptr noundef readonly align 8 captures(none) dereferenceable_or_null(176) %0, i32 noundef %1) local_unnamed_addr #2 align 2 personality ptr @__gxx_personality_v0 {
  %3 = alloca %class.QString, align 8
  %4 = getelementptr inbounds nuw i8, ptr %0, i64 144
  %5 = load ptr, ptr %4, align 8
  %.not = icmp eq ptr %5, null
  br i1 %.not, label %36, label %6

6:                                                ; preds = %2
  call void @llvm.lifetime.start.p0(i64 24, ptr nonnull %3) #18
  %7 = getelementptr inbounds nuw i8, ptr %0, i64 72
  %8 = load ptr, ptr %7, align 8
  %9 = getelementptr inbounds nuw i8, ptr %8, i64 128
  %10 = load ptr, ptr %9, align 8
  call void @_ZNK9QComboBox8itemTextEi(ptr dead_on_unwind nonnull writable sret(%class.QString) align 8 %3, ptr noundef align 8 dereferenceable_or_null(40) %10, i32 noundef %1)
  %11 = icmp eq i32 %1, 0
  br i1 %11, label %12, label %.invoke

12:                                               ; preds = %6
  %13 = getelementptr inbounds nuw i8, ptr %3, i64 8
  %14 = load ptr, ptr %13, align 8
  %.not.i.i.i = icmp eq ptr %14, null
  br i1 %.not.i.i.i, label %.invoke, label %15

15:                                               ; preds = %12
  %16 = load ptr, ptr %3, align 8
  %.not.i.i.i.i = icmp eq ptr %16, null
  call void @llvm.memset.p0.i64(ptr noundef nonnull align 8 dereferenceable(24) dereferenceable_or_null(24) %3, i8 0, i64 24, i1 false)
  br i1 %.not.i.i.i.i, label %.invoke, label %_ZN17QArrayDataPointerIDsE5derefEv.exit.i.i.i

_ZN17QArrayDataPointerIDsE5derefEv.exit.i.i.i:    ; preds = %15
  %17 = atomicrmw sub ptr %16, i32 1 seq_cst, align 4
  %.not.i.i1.i = icmp eq i32 %17, 1
  br i1 %.not.i.i1.i, label %18, label %.invoke

18:                                               ; preds = %_ZN17QArrayDataPointerIDsE5derefEv.exit.i.i.i
  call void @_ZN10QArrayData10deallocateEPS_xx(ptr noundef nonnull %16, i64 noundef 2, i64 noundef 8) #18
  br label %.invoke

19:                                               ; preds = %.invoke, %28
  %20 = landingpad { ptr, i32 }
          cleanup
  %21 = load ptr, ptr %3, align 8
  %.not.i.i.i4 = icmp eq ptr %21, null
  br i1 %.not.i.i.i4, label %_ZN7QStringD2Ev.exit, label %_ZN17QArrayDataPointerIDsE5derefEv.exit.i.i

_ZN17QArrayDataPointerIDsE5derefEv.exit.i.i:      ; preds = %19
  %22 = atomicrmw sub ptr %21, i32 1 seq_cst, align 4
  %.not.i.i = icmp eq i32 %22, 1
  br i1 %.not.i.i, label %23, label %_ZN7QStringD2Ev.exit

23:                                               ; preds = %_ZN17QArrayDataPointerIDsE5derefEv.exit.i.i
  %24 = load ptr, ptr %3, align 8
  call void @_ZN10QArrayData10deallocateEPS_xx(ptr noundef %24, i64 noundef 2, i64 noundef 8) #18
  br label %_ZN7QStringD2Ev.exit

_ZN7QStringD2Ev.exit:                             ; preds = %19, %_ZN17QArrayDataPointerIDsE5derefEv.exit.i.i, %23
  call void @llvm.lifetime.end.p0(i64 24, ptr nonnull %3) #18
  resume { ptr, i32 } %20

.invoke:                                          ; preds = %6, %12, %15, %_ZN17QArrayDataPointerIDsE5derefEv.exit.i.i.i, %18
  %25 = phi i32 [ 3, %18 ], [ 3, %_ZN17QArrayDataPointerIDsE5derefEv.exit.i.i.i ], [ 3, %15 ], [ 3, %12 ], [ 2, %6 ]
  %26 = getelementptr inbounds nuw i8, ptr %0, i64 152
  %27 = load ptr, ptr %26, align 8
  invoke void @_ZN35AStringListListSortFilterProxyModel13setFilterTypeENS_25AStringListListFilterTypeEi(ptr noundef align 8 dereferenceable_or_null(120) %27, i32 noundef %25, i32 noundef 0)
          to label %28 unwind label %19

28:                                               ; preds = %.invoke
  %29 = getelementptr inbounds nuw i8, ptr %0, i64 152
  %30 = load ptr, ptr %29, align 8
  invoke void @_ZN35AStringListListSortFilterProxyModel9setFilterERK7QString(ptr noundef align 8 dereferenceable_or_null(120) %30, ptr noundef nonnull align 8 dereferenceable(24) %3)
          to label %31 unwind label %19

31:                                               ; preds = %28
  %32 = load ptr, ptr %3, align 8
  %.not.i.i.i5 = icmp eq ptr %32, null
  br i1 %.not.i.i.i5, label %_ZN7QStringD2Ev.exit8, label %_ZN17QArrayDataPointerIDsE5derefEv.exit.i.i6

_ZN17QArrayDataPointerIDsE5derefEv.exit.i.i6:     ; preds = %31
  %33 = atomicrmw sub ptr %32, i32 1 seq_cst, align 4
  %.not.i.i7 = icmp eq i32 %33, 1
  br i1 %.not.i.i7, label %34, label %_ZN7QStringD2Ev.exit8

34:                                               ; preds = %_ZN17QArrayDataPointerIDsE5derefEv.exit.i.i6
  %35 = load ptr, ptr %3, align 8
  call void @_ZN10QArrayData10deallocateEPS_xx(ptr noundef %35, i64 noundef 2, i64 noundef 8) #18
  br label %_ZN7QStringD2Ev.exit8

_ZN7QStringD2Ev.exit8:                            ; preds = %31, %_ZN17QArrayDataPointerIDsE5derefEv.exit.i.i6, %34
  call void @llvm.lifetime.end.p0(i64 24, ptr nonnull %3) #18
  br label %36

36:                                               ; preds = %2, %_ZN7QStringD2Ev.exit8
  ret void
}